; Function Attrs: mustprogress uwtable
define noundef i32 @_ZN16WirelessTimeline19tap_timeline_packetEPvP12_packet_infoP12epan_dissectPKvj(ptr nocapture noundef readonly %0, ptr nocapture noundef readonly %1, ptr nocapture readnone %2, ptr noundef %3, i32 %4) #0 align 2 {
  %6 = getelementptr inbounds i8, ptr %0, i64 888
  %7 = load ptr, ptr %6, align 8
  %8 = getelementptr inbounds i8, ptr %1, i64 20
  %9 = load i32, ptr %8, align 4
  %10 = zext i32 %9 to i64
  %11 = inttoptr i64 %10 to ptr
  %12 = tail call i32 @g_hash_table_insert(ptr noundef %7, ptr noundef %11, ptr noundef %3)
  ret i32 0
}